; Function Attrs: mustprogress uwtable
define hidden noundef ptr @_ZN10polynomial7manager9mk_linearEjPK8rationalPKjRS2_(ptr nocapture noundef nonnull readonly align 8 dereferenceable(8) %this, i32 noundef %sz, ptr noundef %as, ptr noundef %xs, ptr noundef nonnull align 8 dereferenceable(32) %c) local_unnamed_addr #4 align 2 {
entry:
  %tmp_c.i = alloca %class.mpz, align 8
  %0 = load ptr, ptr %this, align 8
  call void @llvm.lifetime.start.p0(i64 16, ptr nonnull %tmp_c.i)
  tail call void @_ZN10polynomial7manager3imp16rational2numeralEjPK8rational(ptr noundef nonnull align 8 dereferenceable(824) %0, i32 noundef %sz, ptr noundef %as)
  store i32 0, ptr %tmp_c.i, align 8
  %m_kind.i.i = getelementptr inbounds i8, ptr %tmp_c.i, i64 4
  store i8 0, ptr %m_kind.i.i, align 4
  %m_ptr.i.i = getelementptr inbounds i8, ptr %tmp_c.i, i64 8
  store ptr null, ptr %m_ptr.i.i, align 8
  %m_manager.i = getelementptr inbounds i8, ptr %0, i64 16
  %m_kind.i.i.i.i = getelementptr inbounds i8, ptr %c, i64 4
  %bf.load.i.i.i.i = load i8, ptr %m_kind.i.i.i.i, align 4
  %bf.clear.i.i.i.i = and i8 %bf.load.i.i.i.i, 1
  %cmp.i.i.i.i = icmp eq i8 %bf.clear.i.i.i.i, 0
  br i1 %cmp.i.i.i.i, label %if.then.i.i.i, label %if.else.i.i.i

if.then.i.i.i:                                    ; preds = %entry
  %1 = load i32, ptr %c, align 8
  store i32 %1, ptr %tmp_c.i, align 8
  store i8 0, ptr %m_kind.i.i, align 4
  br label %_ZN11mpz_managerILb0EE3setER3mpzRKS1_.exit.i.i

if.else.i.i.i:                                    ; preds = %entry
  %2 = load ptr, ptr %m_manager.i, align 8
  call void @_ZN11mpz_managerILb0EE7big_setER3mpzRKS1_(ptr noundef nonnull align 8 dereferenceable(600) %2, ptr noundef nonnull align 8 dereferenceable(16) %tmp_c.i, ptr noundef nonnull align 8 dereferenceable(16) %c)
  br label %_ZN11mpz_managerILb0EE3setER3mpzRKS1_.exit.i.i

_ZN11mpz_managerILb0EE3setER3mpzRKS1_.exit.i.i:   ; preds = %if.else.i.i.i, %if.then.i.i.i
  %m_z.i.i.i = getelementptr inbounds i8, ptr %0, i64 24
  %3 = load i8, ptr %m_z.i.i.i, align 8
  %4 = and i8 %3, 1
  %tobool.not.i.i.i = icmp eq i8 %4, 0
  br i1 %tobool.not.i.i.i, label %if.then.i2.i.i, label %_ZN13mpzzp_manager3setER3mpzRKS0_.exit.i

if.then.i2.i.i:                                   ; preds = %_ZN11mpz_managerILb0EE3setER3mpzRKS1_.exit.i.i
  call void @_ZN13mpzzp_manager16p_normalize_coreER3mpz(ptr noundef nonnull align 8 dereferenceable(136) %m_manager.i, ptr noundef nonnull align 8 dereferenceable(16) %tmp_c.i)
  br label %_ZN13mpzzp_manager3setER3mpzRKS0_.exit.i

_ZN13mpzzp_manager3setER3mpzRKS0_.exit.i:         ; preds = %if.then.i2.i.i, %_ZN11mpz_managerILb0EE3setER3mpzRKS1_.exit.i.i
  %m_rat2numeral.i = getelementptr inbounds i8, ptr %0, i64 560
  %5 = load ptr, ptr %m_rat2numeral.i, align 8
  %call4.i = call noundef ptr @_ZN10polynomial7manager3imp9mk_linearEjP3mpzPKjRS2_(ptr noundef nonnull align 8 dereferenceable(824) %0, i32 noundef %sz, ptr noundef %5, ptr noundef %xs, ptr noundef nonnull align 8 dereferenceable(16) %tmp_c.i)
  %6 = load ptr, ptr %m_rat2numeral.i, align 8
  %tobool.not.i.i2.i = icmp eq ptr %6, null
  br i1 %tobool.not.i.i2.i, label %_ZN10polynomial7manager3imp9mk_linearEjPK8rationalPKjRS3_.exit, label %if.then.i.i3.i

if.then.i.i3.i:                                   ; preds = %_ZN13mpzzp_manager3setER3mpzRKS0_.exit.i
  %arrayidx.i.i.i = getelementptr inbounds i8, ptr %6, i64 -4
  store i32 0, ptr %arrayidx.i.i.i, align 4
  br label %_ZN10polynomial7manager3imp9mk_linearEjPK8rationalPKjRS3_.exit

_ZN10polynomial7manager3imp9mk_linearEjPK8rationalPKjRS3_.exit: ; preds = %_ZN13mpzzp_manager3setER3mpzRKS0_.exit.i, %if.then.i.i3.i
  call void @llvm.lifetime.end.p0(i64 16, ptr nonnull %tmp_c.i)
  ret ptr %call4.i
}